target datalayout = "e-m:e-p270:32:32-p271:32:32-p272:64:64-i64:64-i128:128-f80:128-n8:16:32:64-S128"
target triple = "x86_64-pc-linux-gnu"

%struct.Extra_BitMat_t_ = type { ptr, i32, i32, i32, i32, i32, i32, i32 }

; Function Attrs: nounwind uwtable
define void @Extra_BitMatrixClean(ptr noundef %0) #0 {
  %2 = alloca ptr, align 8
  store ptr %0, ptr %2, align 8
  %3 = load ptr, ptr %2, align 8
  %4 = getelementptr inbounds %struct.Extra_BitMat_t_, ptr %3, i32 0, i32 0
  %5 = load ptr, ptr %4, align 8
  %6 = getelementptr inbounds ptr, ptr %5, i64 0
  %7 = load ptr, ptr %6, align 8
  %8 = load ptr, ptr %2, align 8
  %9 = getelementptr inbounds %struct.Extra_BitMat_t_, ptr %8, i32 0, i32 1
  %10 = load i32, ptr %9, align 8
  %11 = sext i32 %10 to i64
  %12 = mul i64 4, %11
  %13 = load ptr, ptr %2, align 8
  %14 = getelementptr inbounds %struct.Extra_BitMat_t_, ptr %13, i32 0, i32 2
  %15 = load i32, ptr %14, align 4
  %16 = sext i32 %15 to i64
  %17 = mul i64 %12, %16
  call void @llvm.memset.p0.i64(ptr align 4 %7, i8 0, i64 %17, i1 false)
  ret void
}