; Function Attrs: mustprogress nofree norecurse nosync nounwind willreturn memory(readwrite, inaccessiblemem: none) uwtable
define void @Extra_BitMatrixClean(ptr noundef readonly captures(none) %0) local_unnamed_addr #3 {
  %2 = load ptr, ptr %0, align 8
  %3 = load ptr, ptr %2, align 8
  %4 = getelementptr inbounds nuw i8, ptr %0, i64 8
  %5 = load i32, ptr %4, align 8
  %6 = sext i32 %5 to i64
  %7 = shl nsw i64 %6, 2
  %8 = getelementptr inbounds nuw i8, ptr %0, i64 12
  %9 = load i32, ptr %8, align 4
  %10 = sext i32 %9 to i64
  %11 = mul i64 %7, %10
  tail call void @llvm.memset.p0.i64(ptr align 4 %3, i8 0, i64 %11, i1 false)
  ret void
}